target datalayout = "e-m:e-p270:32:32-p271:32:32-p272:64:64-i64:64-i128:128-f80:128-n8:16:32:64-S128"
target triple = "x86_64-pc-linux-gnu"

%class.btBoxBoxCollisionAlgorithm = type { %class.btActivatingCollisionAlgorithm, i8, ptr }
%class.btActivatingCollisionAlgorithm = type { %class.btCollisionAlgorithm }
%class.btCollisionAlgorithm = type { ptr, ptr }
%struct.btCollisionObjectWrapper = type { ptr, ptr, ptr, ptr, ptr, i32, i32 }

; Function Attrs: inlinehint mustprogress nounwind uwtable
define linkonce_odr dso_local noundef ptr @_ZNK24btCollisionObjectWrapper18getCollisionObjectEv(ptr noundef nonnull align 8 dereferenceable(48) %0) #4 comdat align 2 {
  %2 = alloca ptr, align 8
  store ptr %0, ptr %2, align 8, !tbaa !18
  %3 = load ptr, ptr %2, align 8
  %4 = getelementptr inbounds nuw %struct.btCollisionObjectWrapper, ptr %3, i32 0, i32 2
  %5 = load ptr, ptr %4, align 8, !tbaa !30
  ret ptr %5
}

; Function Attrs: mustprogress uwtable
define dso_local void @_ZN26btBoxBoxCollisionAlgorithmC2EP20btPersistentManifoldRK36btCollisionAlgorithmConstructionInfoPK24btCollisionObjectWrapperS7_(ptr noundef nonnull align 8 dereferenceable(32) %0, ptr noundef %1, ptr noundef nonnull align 8 dereferenceable(16) %2, ptr noundef %3, ptr noundef %4) unnamed_addr #2 align 2 personality ptr @__gxx_personality_v0 {
  %6 = alloca ptr, align 8
  %7 = alloca ptr, align 8
  %8 = alloca ptr, align 8
  %9 = alloca ptr, align 8
  %10 = alloca ptr, align 8
  %11 = alloca ptr, align 8
  %12 = alloca i32, align 4
  store ptr %0, ptr %6, align 8, !tbaa !12
  store ptr %1, ptr %7, align 8, !tbaa !14
  store ptr %2, ptr %8, align 8, !tbaa !16
  store ptr %3, ptr %9, align 8, !tbaa !18
  store ptr %4, ptr %10, align 8, !tbaa !18
  %13 = load ptr, ptr %6, align 8
  %14 = load ptr, ptr %8, align 8, !tbaa !16
  %15 = load ptr, ptr %9, align 8, !tbaa !18
  %16 = load ptr, ptr %10, align 8, !tbaa !18
  call void @_ZN30btActivatingCollisionAlgorithmC2ERK36btCollisionAlgorithmConstructionInfoPK24btCollisionObjectWrapperS5_(ptr noundef nonnull align 8 dereferenceable(16) %13, ptr noundef nonnull align 8 dereferenceable(16) %14, ptr noundef %15, ptr noundef %16)
  store ptr getelementptr inbounds inrange(-16, 40) ({ [7 x ptr] }, ptr @_ZTV26btBoxBoxCollisionAlgorithm, i32 0, i32 0, i32 2), ptr %13, align 8, !tbaa !20
  %17 = getelementptr inbounds nuw %class.btBoxBoxCollisionAlgorithm, ptr %13, i32 0, i32 1
  store i8 0, ptr %17, align 8, !tbaa !22
  %18 = getelementptr inbounds nuw %class.btBoxBoxCollisionAlgorithm, ptr %13, i32 0, i32 2
  %19 = load ptr, ptr %7, align 8, !tbaa !14
  store ptr %19, ptr %18, align 8, !tbaa !28
  %20 = getelementptr inbounds nuw %class.btBoxBoxCollisionAlgorithm, ptr %13, i32 0, i32 2
  %21 = load ptr, ptr %20, align 8, !tbaa !28
  %22 = icmp ne ptr %21, null
  br i1 %22, label %57, label %23

23:                                               ; preds = %5
  %24 = getelementptr inbounds nuw %class.btCollisionAlgorithm, ptr %13, i32 0, i32 1
  %25 = load ptr, ptr %24, align 8, !tbaa !29
  %26 = load ptr, ptr %9, align 8, !tbaa !18
  %27 = invoke noundef ptr @_ZNK24btCollisionObjectWrapper18getCollisionObjectEv(ptr noundef nonnull align 8 dereferenceable(48) %26)
          to label %28 unwind label %53

28:                                               ; preds = %23
  %29 = load ptr, ptr %10, align 8, !tbaa !18
  %30 = invoke noundef ptr @_ZNK24btCollisionObjectWrapper18getCollisionObjectEv(ptr noundef nonnull align 8 dereferenceable(48) %29)
          to label %31 unwind label %53

31:                                               ; preds = %28
  %32 = load ptr, ptr %25, align 8, !tbaa !20
  %33 = getelementptr inbounds ptr, ptr %32, i64 6
  %34 = load ptr, ptr %33, align 8
  %35 = invoke noundef zeroext i1 %34(ptr noundef nonnull align 8 dereferenceable(8) %25, ptr noundef %27, ptr noundef %30)
          to label %36 unwind label %53

36:                                               ; preds = %31
  br i1 %35, label %37, label %57

37:                                               ; preds = %36
  %38 = getelementptr inbounds nuw %class.btCollisionAlgorithm, ptr %13, i32 0, i32 1
  %39 = load ptr, ptr %38, align 8, !tbaa !29
  %40 = load ptr, ptr %9, align 8, !tbaa !18
  %41 = invoke noundef ptr @_ZNK24btCollisionObjectWrapper18getCollisionObjectEv(ptr noundef nonnull align 8 dereferenceable(48) %40)
          to label %42 unwind label %53

42:                                               ; preds = %37
  %43 = load ptr, ptr %10, align 8, !tbaa !18
  %44 = invoke noundef ptr @_ZNK24btCollisionObjectWrapper18getCollisionObjectEv(ptr noundef nonnull align 8 dereferenceable(48) %43)
          to label %45 unwind label %53

45:                                               ; preds = %42
  %46 = load ptr, ptr %39, align 8, !tbaa !20
  %47 = getelementptr inbounds ptr, ptr %46, i64 3
  %48 = load ptr, ptr %47, align 8
  %49 = invoke noundef ptr %48(ptr noundef nonnull align 8 dereferenceable(8) %39, ptr noundef %41, ptr noundef %44)
          to label %50 unwind label %53

50:                                               ; preds = %45
  %51 = getelementptr inbounds nuw %class.btBoxBoxCollisionAlgorithm, ptr %13, i32 0, i32 2
  store ptr %49, ptr %51, align 8, !tbaa !28
  %52 = getelementptr inbounds nuw %class.btBoxBoxCollisionAlgorithm, ptr %13, i32 0, i32 1
  store i8 1, ptr %52, align 8, !tbaa !22
  br label %57

53:                                               ; preds = %45, %42, %37, %31, %28, %23
  %54 = landingpad { ptr, i32 }
          cleanup
  %55 = extractvalue { ptr, i32 } %54, 0
  store ptr %55, ptr %11, align 8
  %56 = extractvalue { ptr, i32 } %54, 1
  store i32 %56, ptr %12, align 4
  call void @_ZN30btActivatingCollisionAlgorithmD2Ev(ptr noundef nonnull align 8 dereferenceable(16) %13) #11
  br label %58

57:                                               ; preds = %50, %36, %5
  ret void

58:                                               ; preds = %53
  %59 = load ptr, ptr %11, align 8
  %60 = load i32, ptr %12, align 4
  %61 = insertvalue { ptr, i32 } poison, ptr %59, 0
  %62 = insertvalue { ptr, i32 } %61, i32 %60, 1
  resume { ptr, i32 } %62
}